; Function Attrs: nounwind uwtable
define internal fastcc range(i32 0, 4) i32 @read_input(ptr noundef nonnull captures(none) %0) unnamed_addr #0 {
  %2 = load ptr, ptr %0, align 8
  %3 = getelementptr inbounds nuw i8, ptr %2, i64 16
  %4 = load ptr, ptr %3, align 8
  %5 = getelementptr inbounds nuw i8, ptr %0, i64 8
  %6 = load ptr, ptr %5, align 8
  %7 = getelementptr inbounds nuw i8, ptr %0, i64 56
  %8 = load ptr, ptr %7, align 8
  %9 = getelementptr inbounds nuw i8, ptr %0, i64 100
  %10 = load i32, ptr %9, align 4
  %11 = tail call i32 %4(ptr noundef %6, ptr noundef %8, i32 noundef %10) #3
  %12 = icmp slt i32 %11, 0
  br i1 %12, label %13, label %15

13:                                               ; preds = %1
  %14 = getelementptr inbounds nuw i8, ptr %0, i64 52
  store i32 3, ptr %14, align 4
  br label %32

15:                                               ; preds = %1
  %16 = icmp eq i32 %11, 0
  br i1 %16, label %17, label %26

17:                                               ; preds = %15
  %18 = getelementptr inbounds nuw i8, ptr %0, i64 105
  %19 = load i8, ptr %18, align 1
  %.not = icmp eq i8 %19, 0
  br i1 %.not, label %22, label %20

20:                                               ; preds = %17
  %21 = getelementptr inbounds nuw i8, ptr %0, i64 52
  store i32 3, ptr %21, align 4
  br label %32

22:                                               ; preds = %17
  %23 = load ptr, ptr %7, align 8
  %24 = getelementptr inbounds nuw i8, ptr %23, i64 1
  store i8 0, ptr %24, align 1
  %25 = load ptr, ptr %7, align 8
  store i8 0, ptr %25, align 1
  store i8 1, ptr %18, align 1
  br label %26

26:                                               ; preds = %22, %15
  %.0 = phi i32 [ 2, %22 ], [ %11, %15 ]
  %27 = load ptr, ptr %7, align 8
  %28 = getelementptr inbounds nuw i8, ptr %0, i64 64
  store ptr %27, ptr %28, align 8
  %29 = zext nneg i32 %.0 to i64
  %30 = getelementptr inbounds nuw i8, ptr %27, i64 %29
  %31 = getelementptr inbounds nuw i8, ptr %0, i64 72
  store ptr %30, ptr %31, align 8
  br label %32

32:                                               ; preds = %26, %20, %13
  %.017 = phi i32 [ 3, %13 ], [ 3, %20 ], [ 0, %26 ]
  ret i32 %.017
}